target datalayout = "e-m:e-p270:32:32-p271:32:32-p272:64:64-i64:64-i128:128-f80:128-n8:16:32:64-S128"
target triple = "x86_64-pc-linux-gnu"

%struct.Py_buffer = type { ptr, ptr, i64, i64, i32, i32, ptr, ptr, ptr, ptr, ptr }

@.str.41 = private unnamed_addr constant [40 x i8] c"../cpython/Modules/_testcapi/heaptype.c\00", align 1
@.str.133 = private unnamed_addr constant [26 x i8] c"view->obj == (void*) self\00", align 1
@__PRETTY_FUNCTION__.heapctypewithbuffer_releasebuffer = private unnamed_addr constant [81 x i8] c"void heapctypewithbuffer_releasebuffer(HeapCTypeWithBufferObject *, Py_buffer *)\00", align 1

; Function Attrs: nounwind uwtable
define internal void @heapctypewithbuffer_releasebuffer(ptr noundef %0, ptr noundef %1) #0 {
  %3 = alloca ptr, align 8
  %4 = alloca ptr, align 8
  store ptr %0, ptr %3, align 8, !tbaa !20
  store ptr %1, ptr %4, align 8, !tbaa !20
  %5 = load ptr, ptr %4, align 8, !tbaa !20
  %6 = getelementptr inbounds nuw %struct.Py_buffer, ptr %5, i32 0, i32 1
  %7 = load ptr, ptr %6, align 8, !tbaa !63
  %8 = load ptr, ptr %3, align 8, !tbaa !20
  %9 = icmp eq ptr %7, %8
  br i1 %9, label %10, label %11

10:                                               ; preds = %2
  br label %13

11:                                               ; preds = %2
  call void @__assert_fail(ptr noundef @.str.133, ptr noundef @.str.41, i32 noundef 732, ptr noundef @__PRETTY_FUNCTION__.heapctypewithbuffer_releasebuffer) #11
  unreachable

12:                                               ; No predecessors!
  br label %13

13:                                               ; preds = %12, %10
  ret void
}