; Function Attrs: nounwind uwtable
define internal void @heapctypewithbuffer_releasebuffer(ptr noundef readnone %0, ptr noundef readonly captures(none) %1) #0 {
  %3 = getelementptr inbounds nuw i8, ptr %1, i64 8
  %4 = load ptr, ptr %3, align 8, !tbaa !56
  %5 = icmp eq ptr %4, %0
  br i1 %5, label %7, label %6

6:                                                ; preds = %2
  tail call void @__assert_fail(ptr noundef nonnull @.str.133, ptr noundef nonnull @.str.41, i32 noundef 732, ptr noundef nonnull @__PRETTY_FUNCTION__.heapctypewithbuffer_releasebuffer) #10
  unreachable

7:                                                ; preds = %2
  ret void
}